target datalayout = "e-m:e-p270:32:32-p271:32:32-p272:64:64-i64:64-i128:128-f80:128-n8:16:32:64-S128"
target triple = "x86_64-pc-linux-gnu"

%struct.EllipseEquation = type { [7 x double] }

; Function Attrs: mustprogress nounwind uwtable
define linkonce_odr hidden noundef double @_ZN15EllipseEquation1FEv(ptr noundef nonnull align 8 dereferenceable(56) %0) #8 comdat align 2 {
  %2 = alloca ptr, align 8
  store ptr %0, ptr %2, align 8, !tbaa !421
  %3 = load ptr, ptr %2, align 8
  %4 = getelementptr inbounds nuw %struct.EllipseEquation, ptr %3, i32 0, i32 0
  %5 = getelementptr inbounds [7 x double], ptr %4, i64 0, i64 6
  %6 = load double, ptr %5, align 8, !tbaa !10
  ret double %6
}

; Function Attrs: mustprogress nounwind uwtable
define linkonce_odr hidden noundef double @_ZN15EllipseEquation1EEv(ptr noundef nonnull align 8 dereferenceable(56) %0) #8 comdat align 2 {
  %2 = alloca ptr, align 8
  store ptr %0, ptr %2, align 8, !tbaa !421
  %3 = load ptr, ptr %2, align 8
  %4 = getelementptr inbounds nuw %struct.EllipseEquation, ptr %3, i32 0, i32 0
  %5 = getelementptr inbounds [7 x double], ptr %4, i64 0, i64 5
  %6 = load double, ptr %5, align 8, !tbaa !10
  ret double %6
}

; Function Attrs: mustprogress nounwind uwtable
define linkonce_odr hidden noundef double @_ZN15EllipseEquation1DEv(ptr noundef nonnull align 8 dereferenceable(56) %0) #8 comdat align 2 {
  %2 = alloca ptr, align 8
  store ptr %0, ptr %2, align 8, !tbaa !421
  %3 = load ptr, ptr %2, align 8
  %4 = getelementptr inbounds nuw %struct.EllipseEquation, ptr %3, i32 0, i32 0
  %5 = getelementptr inbounds [7 x double], ptr %4, i64 0, i64 4
  %6 = load double, ptr %5, align 8, !tbaa !10
  ret double %6
}

; Function Attrs: mustprogress nounwind uwtable
define linkonce_odr hidden noundef double @_ZN15EllipseEquation1CEv(ptr noundef nonnull align 8 dereferenceable(56) %0) #8 comdat align 2 {
  %2 = alloca ptr, align 8
  store ptr %0, ptr %2, align 8, !tbaa !421
  %3 = load ptr, ptr %2, align 8
  %4 = getelementptr inbounds nuw %struct.EllipseEquation, ptr %3, i32 0, i32 0
  %5 = getelementptr inbounds [7 x double], ptr %4, i64 0, i64 3
  %6 = load double, ptr %5, align 8, !tbaa !10
  ret double %6
}

; Function Attrs: mustprogress nounwind uwtable
define linkonce_odr hidden noundef double @_ZN15EllipseEquation1BEv(ptr noundef nonnull align 8 dereferenceable(56) %0) #8 comdat align 2 {
  %2 = alloca ptr, align 8
  store ptr %0, ptr %2, align 8, !tbaa !421
  %3 = load ptr, ptr %2, align 8
  %4 = getelementptr inbounds nuw %struct.EllipseEquation, ptr %3, i32 0, i32 0
  %5 = getelementptr inbounds [7 x double], ptr %4, i64 0, i64 2
  %6 = load double, ptr %5, align 8, !tbaa !10
  ret double %6
}

; Function Attrs: mustprogress nounwind uwtable
define linkonce_odr hidden noundef double @_ZN15EllipseEquation1AEv(ptr noundef nonnull align 8 dereferenceable(56) %0) #8 comdat align 2 {
  %2 = alloca ptr, align 8
  store ptr %0, ptr %2, align 8, !tbaa !421
  %3 = load ptr, ptr %2, align 8
  %4 = getelementptr inbounds nuw %struct.EllipseEquation, ptr %3, i32 0, i32 0
  %5 = getelementptr inbounds [7 x double], ptr %4, i64 0, i64 1
  %6 = load double, ptr %5, align 8, !tbaa !10
  ret double %6
}

; Function Attrs: mustprogress uwtable
define hidden noundef double @_ZN2cv8ximgproc15EdgeDrawingImpl34ComputeEllipseCenterAndAxisLengthsEP15EllipseEquationPdS4_S4_S4_(ptr noundef %0, ptr noundef %1, ptr noundef %2, ptr noundef %3, ptr noundef %4) #4 align 2 {
  %6 = alloca ptr, align 8
  %7 = alloca ptr, align 8
  %8 = alloca ptr, align 8
  %9 = alloca ptr, align 8
  %10 = alloca ptr, align 8
  %11 = alloca double, align 8
  %12 = alloca double, align 8
  %13 = alloca double, align 8
  %14 = alloca double, align 8
  %15 = alloca double, align 8
  %16 = alloca double, align 8
  %17 = alloca double, align 8
  %18 = alloca double, align 8
  %19 = alloca double, align 8
  %20 = alloca double, align 8
  %21 = alloca double, align 8
  %22 = alloca double, align 8
  %23 = alloca double, align 8
  %24 = alloca double, align 8
  %25 = alloca double, align 8
  %26 = alloca double, align 8
  %27 = alloca double, align 8
  %28 = alloca double, align 8
  %29 = alloca double, align 8
  %30 = alloca double, align 8
  %31 = alloca i8, align 1
  %32 = alloca double, align 8
  %33 = alloca double, align 8
  store ptr %0, ptr %6, align 8, !tbaa !421
  store ptr %1, ptr %7, align 8, !tbaa !42
  store ptr %2, ptr %8, align 8, !tbaa !42
  store ptr %3, ptr %9, align 8, !tbaa !42
  store ptr %4, ptr %10, align 8, !tbaa !42
  call void @llvm.lifetime.start.p0(i64 8, ptr %11) #3
  store double 1.000000e+00, ptr %11, align 8, !tbaa !10
  call void @llvm.lifetime.start.p0(i64 8, ptr %12) #3
  %34 = load ptr, ptr %6, align 8, !tbaa !421
  %35 = call noundef double @_ZN15EllipseEquation1AEv(ptr noundef nonnull align 8 dereferenceable(56) %34)
  %36 = load double, ptr %11, align 8, !tbaa !10
  %37 = fmul double %35, %36
  store double %37, ptr %12, align 8, !tbaa !10
  call void @llvm.lifetime.start.p0(i64 8, ptr %13) #3
  %38 = load ptr, ptr %6, align 8, !tbaa !421
  %39 = call noundef double @_ZN15EllipseEquation1BEv(ptr noundef nonnull align 8 dereferenceable(56) %38)
  %40 = load double, ptr %11, align 8, !tbaa !10
  %41 = fmul double %39, %40
  store double %41, ptr %13, align 8, !tbaa !10
  call void @llvm.lifetime.start.p0(i64 8, ptr %14) #3
  %42 = load ptr, ptr %6, align 8, !tbaa !421
  %43 = call noundef double @_ZN15EllipseEquation1CEv(ptr noundef nonnull align 8 dereferenceable(56) %42)
  %44 = load double, ptr %11, align 8, !tbaa !10
  %45 = fmul double %43, %44
  store double %45, ptr %14, align 8, !tbaa !10
  call void @llvm.lifetime.start.p0(i64 8, ptr %15) #3
  %46 = load ptr, ptr %6, align 8, !tbaa !421
  %47 = call noundef double @_ZN15EllipseEquation1DEv(ptr noundef nonnull align 8 dereferenceable(56) %46)
  %48 = load double, ptr %11, align 8, !tbaa !10
  %49 = fmul double %47, %48
  store double %49, ptr %15, align 8, !tbaa !10
  call void @llvm.lifetime.start.p0(i64 8, ptr %16) #3
  %50 = load ptr, ptr %6, align 8, !tbaa !421
  %51 = call noundef double @_ZN15EllipseEquation1EEv(ptr noundef nonnull align 8 dereferenceable(56) %50)
  %52 = load double, ptr %11, align 8, !tbaa !10
  %53 = fmul double %51, %52
  store double %53, ptr %16, align 8, !tbaa !10
  call void @llvm.lifetime.start.p0(i64 8, ptr %17) #3
  %54 = load ptr, ptr %6, align 8, !tbaa !421
  %55 = call noundef double @_ZN15EllipseEquation1FEv(ptr noundef nonnull align 8 dereferenceable(56) %54)
  %56 = load double, ptr %11, align 8, !tbaa !10
  %57 = fmul double %55, %56
  store double %57, ptr %17, align 8, !tbaa !10
  call void @llvm.lifetime.start.p0(i64 8, ptr %18) #3
  store double 0.000000e+00, ptr %18, align 8, !tbaa !10
  call void @llvm.lifetime.start.p0(i64 8, ptr %19) #3
  store double 0.000000e+00, ptr %19, align 8, !tbaa !10
  call void @llvm.lifetime.start.p0(i64 8, ptr %20) #3
  store double 0.000000e+00, ptr %20, align 8, !tbaa !10
  call void @llvm.lifetime.start.p0(i64 8, ptr %21) #3
  store double 0.000000e+00, ptr %21, align 8, !tbaa !10
  call void @llvm.lifetime.start.p0(i64 8, ptr %22) #3
  store double 0.000000e+00, ptr %22, align 8, !tbaa !10
  call void @llvm.lifetime.start.p0(i64 8, ptr %23) #3
  store double 0.000000e+00, ptr %23, align 8, !tbaa !10
  call void @llvm.lifetime.start.p0(i64 8, ptr %24) #3
  call void @llvm.lifetime.start.p0(i64 8, ptr %25) #3
  call void @llvm.lifetime.start.p0(i64 8, ptr %26) #3
  call void @llvm.lifetime.start.p0(i64 8, ptr %27) #3
  call void @llvm.lifetime.start.p0(i64 8, ptr %28) #3
  call void @llvm.lifetime.start.p0(i64 8, ptr %29) #3
  call void @llvm.lifetime.start.p0(i64 8, ptr %30) #3
  call void @llvm.lifetime.start.p0(i64 1, ptr %31) #3
  store i8 0, ptr %31, align 1, !tbaa !111
  %58 = load double, ptr %12, align 8, !tbaa !10
  %59 = load double, ptr %13, align 8, !tbaa !10
  %60 = fdiv double %59, %58
  store double %60, ptr %13, align 8, !tbaa !10
  %61 = load double, ptr %12, align 8, !tbaa !10
  %62 = load double, ptr %14, align 8, !tbaa !10
  %63 = fdiv double %62, %61
  store double %63, ptr %14, align 8, !tbaa !10
  %64 = load double, ptr %12, align 8, !tbaa !10
  %65 = load double, ptr %15, align 8, !tbaa !10
  %66 = fdiv double %65, %64
  store double %66, ptr %15, align 8, !tbaa !10
  %67 = load double, ptr %12, align 8, !tbaa !10
  %68 = load double, ptr %16, align 8, !tbaa !10
  %69 = fdiv double %68, %67
  store double %69, ptr %16, align 8, !tbaa !10
  %70 = load double, ptr %12, align 8, !tbaa !10
  %71 = load double, ptr %17, align 8, !tbaa !10
  %72 = fdiv double %71, %70
  store double %72, ptr %17, align 8, !tbaa !10
  %73 = load double, ptr %12, align 8, !tbaa !10
  %74 = load double, ptr %12, align 8, !tbaa !10
  %75 = fdiv double %74, %73
  store double %75, ptr %12, align 8, !tbaa !10
  %76 = load double, ptr %13, align 8, !tbaa !10
  %77 = fcmp oeq double %76, 0.000000e+00
  br i1 %77, label %78, label %84

78:                                               ; preds = %5
  %79 = load double, ptr %12, align 8, !tbaa !10
  store double %79, ptr %18, align 8, !tbaa !10
  %80 = load double, ptr %14, align 8, !tbaa !10
  store double %80, ptr %19, align 8, !tbaa !10
  %81 = load double, ptr %15, align 8, !tbaa !10
  store double %81, ptr %20, align 8, !tbaa !10
  %82 = load double, ptr %16, align 8, !tbaa !10
  store double %82, ptr %21, align 8, !tbaa !10
  %83 = load double, ptr %17, align 8, !tbaa !10
  store double %83, ptr %22, align 8, !tbaa !10
  br label %151

84:                                               ; preds = %5
  %85 = load double, ptr %13, align 8, !tbaa !10
  %86 = fcmp une double %85, 0.000000e+00
  br i1 %86, label %87, label %150

87:                                               ; preds = %84
  store i8 1, ptr %31, align 1, !tbaa !111
  %88 = load double, ptr %13, align 8, !tbaa !10
  %89 = load double, ptr %12, align 8, !tbaa !10
  %90 = load double, ptr %14, align 8, !tbaa !10
  %91 = fsub double %89, %90
  %92 = fdiv double %88, %91
  %93 = call double @atan(double noundef %92) #3, !tbaa !8
  %94 = fdiv double %93, 2.000000e+00
  store double %94, ptr %23, align 8, !tbaa !10
  %95 = load double, ptr %12, align 8, !tbaa !10
  %96 = load double, ptr %23, align 8, !tbaa !10
  %97 = fmul double 2.000000e+00, %96
  %98 = call double @cos(double noundef %97) #3, !tbaa !8
  %99 = fadd double 1.000000e+00, %98
  %100 = load double, ptr %13, align 8, !tbaa !10
  %101 = load double, ptr %23, align 8, !tbaa !10
  %102 = fmul double 2.000000e+00, %101
  %103 = call double @sin(double noundef %102) #3, !tbaa !8
  %104 = call double @llvm.fmuladd.f64(double %100, double %103, double %99)
  %105 = load double, ptr %14, align 8, !tbaa !10
  %106 = load double, ptr %23, align 8, !tbaa !10
  %107 = fmul double 2.000000e+00, %106
  %108 = call double @cos(double noundef %107) #3, !tbaa !8
  %109 = fsub double 1.000000e+00, %108
  %110 = call double @llvm.fmuladd.f64(double %105, double %109, double %104)
  %111 = fmul double %95, %110
  %112 = fmul double 5.000000e-01, %111
  store double %112, ptr %18, align 8, !tbaa !10
  %113 = load double, ptr %12, align 8, !tbaa !10
  %114 = load double, ptr %23, align 8, !tbaa !10
  %115 = fmul double 2.000000e+00, %114
  %116 = call double @cos(double noundef %115) #3, !tbaa !8
  %117 = fsub double 1.000000e+00, %116
  %118 = load double, ptr %13, align 8, !tbaa !10
  %119 = load double, ptr %23, align 8, !tbaa !10
  %120 = fmul double 2.000000e+00, %119
  %121 = call double @sin(double noundef %120) #3, !tbaa !8
  %122 = fneg double %118
  %123 = call double @llvm.fmuladd.f64(double %122, double %121, double %117)
  %124 = load double, ptr %14, align 8, !tbaa !10
  %125 = load double, ptr %23, align 8, !tbaa !10
  %126 = fmul double 2.000000e+00, %125
  %127 = call double @cos(double noundef %126) #3, !tbaa !8
  %128 = fadd double 1.000000e+00, %127
  %129 = call double @llvm.fmuladd.f64(double %124, double %128, double %123)
  %130 = fmul double %113, %129
  %131 = fmul double 5.000000e-01, %130
  store double %131, ptr %19, align 8, !tbaa !10
  %132 = load double, ptr %15, align 8, !tbaa !10
  %133 = load double, ptr %23, align 8, !tbaa !10
  %134 = call double @cos(double noundef %133) #3, !tbaa !8
  %135 = load double, ptr %16, align 8, !tbaa !10
  %136 = load double, ptr %23, align 8, !tbaa !10
  %137 = call double @sin(double noundef %136) #3, !tbaa !8
  %138 = fmul double %135, %137
  %139 = call double @llvm.fmuladd.f64(double %132, double %134, double %138)
  store double %139, ptr %20, align 8, !tbaa !10
  %140 = load double, ptr %15, align 8, !tbaa !10
  %141 = fneg double %140
  %142 = load double, ptr %23, align 8, !tbaa !10
  %143 = call double @sin(double noundef %142) #3, !tbaa !8
  %144 = load double, ptr %16, align 8, !tbaa !10
  %145 = load double, ptr %23, align 8, !tbaa !10
  %146 = call double @cos(double noundef %145) #3, !tbaa !8
  %147 = fmul double %144, %146
  %148 = call double @llvm.fmuladd.f64(double %141, double %143, double %147)
  store double %148, ptr %21, align 8, !tbaa !10
  %149 = load double, ptr %17, align 8, !tbaa !10
  store double %149, ptr %22, align 8, !tbaa !10
  br label %150

150:                                              ; preds = %87, %84
  br label %151

151:                                              ; preds = %150, %78
  %152 = load double, ptr %20, align 8, !tbaa !10
  %153 = load double, ptr %18, align 8, !tbaa !10
  %154 = fdiv double %152, %153
  store double %154, ptr %24, align 8, !tbaa !10
  %155 = load double, ptr %21, align 8, !tbaa !10
  %156 = load double, ptr %19, align 8, !tbaa !10
  %157 = fdiv double %155, %156
  store double %157, ptr %25, align 8, !tbaa !10
  %158 = load double, ptr %24, align 8, !tbaa !10
  %159 = fdiv double %158, 2.000000e+00
  %160 = fneg double %159
  store double %160, ptr %27, align 8, !tbaa !10
  %161 = load double, ptr %25, align 8, !tbaa !10
  %162 = fdiv double %161, 2.000000e+00
  %163 = fneg double %162
  store double %163, ptr %28, align 8, !tbaa !10
  %164 = load double, ptr %18, align 8, !tbaa !10
  %165 = load double, ptr %27, align 8, !tbaa !10
  %166 = call double @pow(double noundef %165, double noundef 2.000000e+00) #3, !tbaa !8
  %167 = load double, ptr %19, align 8, !tbaa !10
  %168 = load double, ptr %28, align 8, !tbaa !10
  %169 = call double @pow(double noundef %168, double noundef 2.000000e+00) #3, !tbaa !8
  %170 = fmul double %167, %169
  %171 = call double @llvm.fmuladd.f64(double %164, double %166, double %170)
  %172 = load double, ptr %22, align 8, !tbaa !10
  %173 = fsub double %171, %172
  store double %173, ptr %26, align 8, !tbaa !10
  %174 = load double, ptr %26, align 8, !tbaa !10
  %175 = load double, ptr %18, align 8, !tbaa !10
  %176 = fdiv double %174, %175
  %177 = call double @sqrt(double noundef %176) #3, !tbaa !8
  store double %177, ptr %29, align 8, !tbaa !10
  %178 = load double, ptr %26, align 8, !tbaa !10
  %179 = load double, ptr %19, align 8, !tbaa !10
  %180 = fdiv double %178, %179
  %181 = call double @sqrt(double noundef %180) #3, !tbaa !8
  store double %181, ptr %30, align 8, !tbaa !10
  %182 = load i8, ptr %31, align 1, !tbaa !111, !range !70, !noundef !71
  %183 = trunc i8 %182 to i1
  br i1 %183, label %184, label %204

184:                                              ; preds = %151
  call void @llvm.lifetime.start.p0(i64 8, ptr %32) #3
  %185 = load double, ptr %27, align 8, !tbaa !10
  store double %185, ptr %32, align 8, !tbaa !10
  call void @llvm.lifetime.start.p0(i64 8, ptr %33) #3
  %186 = load double, ptr %28, align 8, !tbaa !10
  store double %186, ptr %33, align 8, !tbaa !10
  %187 = load double, ptr %32, align 8, !tbaa !10
  %188 = load double, ptr %23, align 8, !tbaa !10
  %189 = call double @cos(double noundef %188) #3, !tbaa !8
  %190 = load double, ptr %33, align 8, !tbaa !10
  %191 = load double, ptr %23, align 8, !tbaa !10
  %192 = call double @sin(double noundef %191) #3, !tbaa !8
  %193 = fmul double %190, %192
  %194 = fneg double %193
  %195 = call double @llvm.fmuladd.f64(double %187, double %189, double %194)
  store double %195, ptr %27, align 8, !tbaa !10
  %196 = load double, ptr %32, align 8, !tbaa !10
  %197 = load double, ptr %23, align 8, !tbaa !10
  %198 = call double @sin(double noundef %197) #3, !tbaa !8
  %199 = load double, ptr %33, align 8, !tbaa !10
  %200 = load double, ptr %23, align 8, !tbaa !10
  %201 = call double @cos(double noundef %200) #3, !tbaa !8
  %202 = fmul double %199, %201
  %203 = call double @llvm.fmuladd.f64(double %196, double %198, double %202)
  store double %203, ptr %28, align 8, !tbaa !10
  call void @llvm.lifetime.end.p0(i64 8, ptr %33) #3
  call void @llvm.lifetime.end.p0(i64 8, ptr %32) #3
  br label %204

204:                                              ; preds = %184, %151
  %205 = load double, ptr %27, align 8, !tbaa !10
  %206 = load ptr, ptr %7, align 8, !tbaa !42
  store double %205, ptr %206, align 8, !tbaa !10
  %207 = load double, ptr %28, align 8, !tbaa !10
  %208 = load ptr, ptr %8, align 8, !tbaa !42
  store double %207, ptr %208, align 8, !tbaa !10
  %209 = load double, ptr %29, align 8, !tbaa !10
  %210 = load ptr, ptr %9, align 8, !tbaa !42
  store double %209, ptr %210, align 8, !tbaa !10
  %211 = load double, ptr %30, align 8, !tbaa !10
  %212 = load ptr, ptr %10, align 8, !tbaa !42
  store double %211, ptr %212, align 8, !tbaa !10
  %213 = load double, ptr %23, align 8, !tbaa !10
  call void @llvm.lifetime.end.p0(i64 1, ptr %31) #3
  call void @llvm.lifetime.end.p0(i64 8, ptr %30) #3
  call void @llvm.lifetime.end.p0(i64 8, ptr %29) #3
  call void @llvm.lifetime.end.p0(i64 8, ptr %28) #3
  call void @llvm.lifetime.end.p0(i64 8, ptr %27) #3
  call void @llvm.lifetime.end.p0(i64 8, ptr %26) #3
  call void @llvm.lifetime.end.p0(i64 8, ptr %25) #3
  call void @llvm.lifetime.end.p0(i64 8, ptr %24) #3
  call void @llvm.lifetime.end.p0(i64 8, ptr %23) #3
  call void @llvm.lifetime.end.p0(i64 8, ptr %22) #3
  call void @llvm.lifetime.end.p0(i64 8, ptr %21) #3
  call void @llvm.lifetime.end.p0(i64 8, ptr %20) #3
  call void @llvm.lifetime.end.p0(i64 8, ptr %19) #3
  call void @llvm.lifetime.end.p0(i64 8, ptr %18) #3
  call void @llvm.lifetime.end.p0(i64 8, ptr %17) #3
  call void @llvm.lifetime.end.p0(i64 8, ptr %16) #3
  call void @llvm.lifetime.end.p0(i64 8, ptr %15) #3
  call void @llvm.lifetime.end.p0(i64 8, ptr %14) #3
  call void @llvm.lifetime.end.p0(i64 8, ptr %13) #3
  call void @llvm.lifetime.end.p0(i64 8, ptr %12) #3
  call void @llvm.lifetime.end.p0(i64 8, ptr %11) #3
  ret double %213
}