; Function Attrs: mustprogress nofree nounwind willreturn memory(write, argmem: readwrite) uwtable
define hidden noundef double @_ZN2cv8ximgproc15EdgeDrawingImpl34ComputeEllipseCenterAndAxisLengthsEP15EllipseEquationPdS4_S4_S4_(ptr noundef readonly captures(none) %0, ptr noundef writeonly captures(none) initializes((0, 8)) %1, ptr noundef writeonly captures(none) initializes((0, 8)) %2, ptr noundef writeonly captures(none) initializes((0, 8)) %3, ptr noundef writeonly captures(none) initializes((0, 8)) %4) local_unnamed_addr #23 align 2 {
  %6 = getelementptr inbounds nuw i8, ptr %0, i64 8
  %7 = load double, ptr %6, align 8, !tbaa !37
  %8 = getelementptr inbounds nuw i8, ptr %0, i64 16
  %9 = load double, ptr %8, align 8, !tbaa !37
  %10 = getelementptr inbounds nuw i8, ptr %0, i64 24
  %11 = load double, ptr %10, align 8, !tbaa !37
  %12 = getelementptr inbounds nuw i8, ptr %0, i64 32
  %13 = load double, ptr %12, align 8, !tbaa !37
  %14 = getelementptr inbounds nuw i8, ptr %0, i64 40
  %15 = load double, ptr %14, align 8, !tbaa !37
  %16 = getelementptr inbounds nuw i8, ptr %0, i64 48
  %17 = load double, ptr %16, align 8, !tbaa !37
  %18 = fdiv double %9, %7
  %19 = fdiv double %11, %7
  %20 = fdiv double %13, %7
  %21 = fdiv double %15, %7
  %22 = fdiv double %17, %7
  %23 = fdiv double %7, %7
  %24 = fcmp une double %18, 0.000000e+00
  br i1 %24, label %25, label %59

25:                                               ; preds = %5
  %26 = fsub double %23, %19
  %27 = fdiv double %18, %26
  %28 = tail call double @atan(double noundef %27) #41, !tbaa !15
  %29 = fmul double %28, 5.000000e-01
  %30 = fmul double %29, 2.000000e+00
  %31 = tail call double @cos(double noundef %30) #41, !tbaa !15
  %32 = fadd double %31, 1.000000e+00
  %33 = tail call double @sin(double noundef %30) #41, !tbaa !15
  %34 = tail call double @llvm.fmuladd.f64(double %18, double %33, double %32)
  %35 = tail call double @cos(double noundef %30) #41, !tbaa !15
  %36 = fsub double 1.000000e+00, %35
  %37 = tail call double @llvm.fmuladd.f64(double %19, double %36, double %34)
  %38 = fmul double %23, %37
  %39 = fmul double %38, 5.000000e-01
  %40 = tail call double @cos(double noundef %30) #41, !tbaa !15
  %41 = fsub double 1.000000e+00, %40
  %42 = tail call double @sin(double noundef %30) #41, !tbaa !15
  %43 = fneg double %18
  %44 = tail call double @llvm.fmuladd.f64(double %43, double %42, double %41)
  %45 = tail call double @cos(double noundef %30) #41, !tbaa !15
  %46 = fadd double %45, 1.000000e+00
  %47 = tail call double @llvm.fmuladd.f64(double %19, double %46, double %44)
  %48 = fmul double %23, %47
  %49 = fmul double %48, 5.000000e-01
  %50 = tail call double @cos(double noundef %29) #41, !tbaa !15
  %51 = tail call double @sin(double noundef %29) #41, !tbaa !15
  %52 = fmul double %21, %51
  %53 = tail call double @llvm.fmuladd.f64(double %20, double %50, double %52)
  %54 = fneg double %20
  %55 = tail call double @sin(double noundef %29) #41, !tbaa !15
  %56 = tail call double @cos(double noundef %29) #41, !tbaa !15
  %57 = fmul double %21, %56
  %58 = tail call double @llvm.fmuladd.f64(double %54, double %55, double %57)
  br label %59

59:                                               ; preds = %5, %25
  %.096 = phi double [ %49, %25 ], [ %19, %5 ]
  %.095 = phi double [ %53, %25 ], [ %20, %5 ]
  %.094 = phi double [ %58, %25 ], [ %21, %5 ]
  %.092 = phi double [ %29, %25 ], [ 0.000000e+00, %5 ]
  %.091 = phi double [ %39, %25 ], [ %23, %5 ]
  %60 = fdiv double %.095, %.091
  %61 = fdiv double %.094, %.096
  %62 = fmul double %60, -5.000000e-01
  %63 = fmul double %61, -5.000000e-01
  %square = fmul double %62, %62
  %square98 = fmul double %63, %63
  %64 = fmul double %.096, %square98
  %65 = tail call double @llvm.fmuladd.f64(double %.091, double %square, double %64)
  %66 = fsub double %65, %22
  %67 = fdiv double %66, %.091
  %68 = tail call double @sqrt(double noundef %67) #41, !tbaa !15
  %69 = fdiv double %66, %.096
  %70 = tail call double @sqrt(double noundef %69) #41, !tbaa !15
  br i1 %24, label %71, label %81

71:                                               ; preds = %59
  %72 = tail call double @cos(double noundef %.092) #41, !tbaa !15
  %73 = tail call double @sin(double noundef %.092) #41, !tbaa !15
  %74 = fneg double %73
  %75 = fmul double %63, %74
  %76 = tail call double @llvm.fmuladd.f64(double %62, double %72, double %75)
  %77 = tail call double @sin(double noundef %.092) #41, !tbaa !15
  %78 = tail call double @cos(double noundef %.092) #41, !tbaa !15
  %79 = fmul double %63, %78
  %80 = tail call double @llvm.fmuladd.f64(double %62, double %77, double %79)
  br label %81

81:                                               ; preds = %71, %59
  %.090 = phi double [ %76, %71 ], [ %62, %59 ]
  %.089 = phi double [ %80, %71 ], [ %63, %59 ]
  store double %.090, ptr %1, align 8, !tbaa !37
  store double %.089, ptr %2, align 8, !tbaa !37
  store double %68, ptr %3, align 8, !tbaa !37
  store double %70, ptr %4, align 8, !tbaa !37
  ret double %.092
}